; Function Attrs: mustprogress noreturn uwtable
define void @_ZN2cv3ogl6BufferC2ERKNS_11_InputArrayENS1_6TargetEb(ptr nocapture noundef nonnull align 8 dereferenceable(28) %0, ptr nocapture nonnull readnone align 8 %1, i32 %2, i1 zeroext %3) unnamed_addr #0 align 2 personality ptr @__gxx_personality_v0 {
  tail call void @llvm.memset.p0.i64(ptr noundef nonnull align 8 dereferenceable(28) %0, i8 0, i64 28, i1 false)
  invoke fastcc void @_ZN12_GLOBAL__N_112throw_no_oglEv() #9
          to label %5 unwind label %6

5:                                                ; preds = %4
  unreachable

6:                                                ; preds = %4
  %7 = landingpad { ptr, i32 }
          cleanup
  %8 = getelementptr inbounds i8, ptr %0, i64 8
  %9 = load ptr, ptr %8, align 8
  %.not.i.i.i.i = icmp eq ptr %9, null
  br i1 %.not.i.i.i.i, label %_ZN2cv3PtrINS_3ogl6Buffer4ImplEED2Ev.exit, label %10

10:                                               ; preds = %6
  %11 = getelementptr inbounds i8, ptr %9, i64 8
  %12 = load atomic i64, ptr %11 acquire, align 8
  %13 = icmp eq i64 %12, 4294967297
  %14 = trunc i64 %12 to i32
  br i1 %13, label %15, label %20

15:                                               ; preds = %10
  store i32 0, ptr %11, align 8
  %16 = getelementptr inbounds i8, ptr %9, i64 12
  store i32 0, ptr %16, align 4
  %17 = load ptr, ptr %9, align 8
  %18 = getelementptr inbounds i8, ptr %17, i64 16
  %19 = load ptr, ptr %18, align 8
  tail call void %19(ptr noundef nonnull align 8 dereferenceable(16) %9) #10
  br label %_ZNSt16_Sp_counted_baseILN9__gnu_cxx12_Lock_policyE2EE24_M_release_last_use_coldEv.exit.sink.split.i.i.i.i.i

20:                                               ; preds = %10
  %21 = load i8, ptr @__libc_single_threaded, align 1
  %.not.i.i.i.i.i = icmp eq i8 %21, 0
  br i1 %.not.i.i.i.i.i, label %24, label %22

22:                                               ; preds = %20
  %23 = add nsw i32 %14, -1
  store i32 %23, ptr %11, align 4
  br label %26

24:                                               ; preds = %20
  %25 = atomicrmw volatile add ptr %11, i32 -1 acq_rel, align 4
  br label %26

26:                                               ; preds = %24, %22
  %.0.i.i.i.i.i = phi i32 [ %14, %22 ], [ %25, %24 ]
  %27 = icmp eq i32 %.0.i.i.i.i.i, 1
  br i1 %27, label %28, label %_ZN2cv3PtrINS_3ogl6Buffer4ImplEED2Ev.exit

28:                                               ; preds = %26
  %29 = load ptr, ptr %9, align 8
  %30 = getelementptr inbounds i8, ptr %29, i64 16
  %31 = load ptr, ptr %30, align 8
  tail call void %31(ptr noundef nonnull align 8 dereferenceable(16) %9) #10
  %32 = getelementptr inbounds i8, ptr %9, i64 12
  %33 = load i8, ptr @__libc_single_threaded, align 1
  %.not.i.i.i.i.i.i.i = icmp eq i8 %33, 0
  br i1 %.not.i.i.i.i.i.i.i, label %37, label %34

34:                                               ; preds = %28
  %35 = load i32, ptr %32, align 4
  %36 = add nsw i32 %35, -1
  store i32 %36, ptr %32, align 4
  br label %39

37:                                               ; preds = %28
  %38 = atomicrmw volatile add ptr %32, i32 -1 acq_rel, align 4
  br label %39

39:                                               ; preds = %37, %34
  %.0.i.i.i.i.i.i.i = phi i32 [ %35, %34 ], [ %38, %37 ]
  %40 = icmp eq i32 %.0.i.i.i.i.i.i.i, 1
  br i1 %40, label %_ZNSt16_Sp_counted_baseILN9__gnu_cxx12_Lock_policyE2EE24_M_release_last_use_coldEv.exit.sink.split.i.i.i.i.i, label %_ZN2cv3PtrINS_3ogl6Buffer4ImplEED2Ev.exit

_ZNSt16_Sp_counted_baseILN9__gnu_cxx12_Lock_policyE2EE24_M_release_last_use_coldEv.exit.sink.split.i.i.i.i.i: ; preds = %39, %15
  %41 = load ptr, ptr %9, align 8
  %42 = getelementptr inbounds i8, ptr %41, i64 24
  %43 = load ptr, ptr %42, align 8
  tail call void %43(ptr noundef nonnull align 8 dereferenceable(16) %9) #10
  br label %_ZN2cv3PtrINS_3ogl6Buffer4ImplEED2Ev.exit

_ZN2cv3PtrINS_3ogl6Buffer4ImplEED2Ev.exit:        ; preds = %6, %26, %39, %_ZNSt16_Sp_counted_baseILN9__gnu_cxx12_Lock_policyE2EE24_M_release_last_use_coldEv.exit.sink.split.i.i.i.i.i
  resume { ptr, i32 } %7
}